target datalayout = "e-m:e-p270:32:32-p271:32:32-p272:64:64-i64:64-i128:128-f80:128-n8:16:32:64-S128"
target triple = "x86_64-pc-linux-gnu"

%struct.Pdr_Set_t_ = type { i64, i32, i32, i32, [0 x i32] }
%struct.Vec_Int_t_ = type { i32, i32, ptr }

@.str = private unnamed_addr constant [3 x i8] c"%s\00", align 1

; Function Attrs: nounwind uwtable
define internal i32 @Vec_IntEntry(ptr noundef %0, i32 noundef %1) #0 {
  %3 = alloca ptr, align 8
  %4 = alloca i32, align 4
  store ptr %0, ptr %3, align 8
  store i32 %1, ptr %4, align 4
  %5 = load ptr, ptr %3, align 8
  %6 = getelementptr inbounds %struct.Vec_Int_t_, ptr %5, i32 0, i32 2
  %7 = load ptr, ptr %6, align 8
  %8 = load i32, ptr %4, align 4
  %9 = sext i32 %8 to i64
  %10 = getelementptr inbounds i32, ptr %7, i64 %9
  %11 = load i32, ptr %10, align 4
  ret i32 %11
}

; Function Attrs: nounwind uwtable
define internal i32 @Vec_IntSize(ptr noundef %0) #0 {
  %2 = alloca ptr, align 8
  store ptr %0, ptr %2, align 8
  %3 = load ptr, ptr %2, align 8
  %4 = getelementptr inbounds %struct.Vec_Int_t_, ptr %3, i32 0, i32 1
  %5 = load i32, ptr %4, align 4
  ret i32 %5
}

; Function Attrs: nounwind uwtable
define internal i32 @Abc_Lit2Var(i32 noundef %0) #0 {
  %2 = alloca i32, align 4
  store i32 %0, ptr %2, align 4
  %3 = load i32, ptr %2, align 4
  %4 = ashr i32 %3, 1
  ret i32 %4
}

; Function Attrs: nounwind uwtable
define internal i32 @Abc_LitIsCompl(i32 noundef %0) #0 {
  %2 = alloca i32, align 4
  store i32 %0, ptr %2, align 4
  %3 = load i32, ptr %2, align 4
  %4 = and i32 %3, 1
  ret i32 %4
}

; Function Attrs: nounwind uwtable
define void @Pdr_SetPrint(ptr noundef %0, ptr noundef %1, i32 noundef %2, ptr noundef %3) #0 {
  %5 = alloca ptr, align 8
  %6 = alloca ptr, align 8
  %7 = alloca i32, align 4
  %8 = alloca ptr, align 8
  %9 = alloca ptr, align 8
  %10 = alloca i32, align 4
  %11 = alloca i32, align 4
  %12 = alloca i32, align 4
  store ptr %0, ptr %5, align 8
  store ptr %1, ptr %6, align 8
  store i32 %2, ptr %7, align 4
  store ptr %3, ptr %8, align 8
  %13 = load i32, ptr %7, align 4
  %14 = add nsw i32 %13, 1
  %15 = sext i32 %14 to i64
  %16 = mul i64 1, %15
  %17 = call noalias ptr @malloc(i64 noundef %16) #10
  store ptr %17, ptr %9, align 8
  store i32 0, ptr %10, align 4
  br label %18

18:                                               ; preds = %27, %4
  %19 = load i32, ptr %10, align 4
  %20 = load i32, ptr %7, align 4
  %21 = icmp slt i32 %19, %20
  br i1 %21, label %22, label %30

22:                                               ; preds = %18
  %23 = load ptr, ptr %9, align 8
  %24 = load i32, ptr %10, align 4
  %25 = sext i32 %24 to i64
  %26 = getelementptr inbounds i8, ptr %23, i64 %25
  store i8 45, ptr %26, align 1
  br label %27

27:                                               ; preds = %22
  %28 = load i32, ptr %10, align 4
  %29 = add nsw i32 %28, 1
  store i32 %29, ptr %10, align 4
  br label %18, !llvm.loop !13

30:                                               ; preds = %18
  %31 = load ptr, ptr %9, align 8
  %32 = load i32, ptr %10, align 4
  %33 = sext i32 %32 to i64
  %34 = getelementptr inbounds i8, ptr %31, i64 %33
  store i8 0, ptr %34, align 1
  store i32 0, ptr %10, align 4
  br label %35

35:                                               ; preds = %71, %30
  %36 = load i32, ptr %10, align 4
  %37 = load ptr, ptr %6, align 8
  %38 = getelementptr inbounds %struct.Pdr_Set_t_, ptr %37, i32 0, i32 3
  %39 = load i32, ptr %38, align 8
  %40 = icmp slt i32 %36, %39
  br i1 %40, label %41, label %74

41:                                               ; preds = %35
  %42 = load ptr, ptr %6, align 8
  %43 = getelementptr inbounds %struct.Pdr_Set_t_, ptr %42, i32 0, i32 4
  %44 = load i32, ptr %10, align 4
  %45 = sext i32 %44 to i64
  %46 = getelementptr inbounds [0 x i32], ptr %43, i64 0, i64 %45
  %47 = load i32, ptr %46, align 4
  %48 = icmp eq i32 %47, -1
  br i1 %48, label %49, label %50

49:                                               ; preds = %41
  br label %71

50:                                               ; preds = %41
  %51 = load ptr, ptr %6, align 8
  %52 = getelementptr inbounds %struct.Pdr_Set_t_, ptr %51, i32 0, i32 4
  %53 = load i32, ptr %10, align 4
  %54 = sext i32 %53 to i64
  %55 = getelementptr inbounds [0 x i32], ptr %52, i64 0, i64 %54
  %56 = load i32, ptr %55, align 4
  %57 = call i32 @Abc_LitIsCompl(i32 noundef %56)
  %58 = icmp ne i32 %57, 0
  %59 = select i1 %58, i32 48, i32 49
  %60 = trunc i32 %59 to i8
  %61 = load ptr, ptr %9, align 8
  %62 = load ptr, ptr %6, align 8
  %63 = getelementptr inbounds %struct.Pdr_Set_t_, ptr %62, i32 0, i32 4
  %64 = load i32, ptr %10, align 4
  %65 = sext i32 %64 to i64
  %66 = getelementptr inbounds [0 x i32], ptr %63, i64 0, i64 %65
  %67 = load i32, ptr %66, align 4
  %68 = call i32 @Abc_Lit2Var(i32 noundef %67)
  %69 = sext i32 %68 to i64
  %70 = getelementptr inbounds i8, ptr %61, i64 %69
  store i8 %60, ptr %70, align 1
  br label %71

71:                                               ; preds = %50, %49
  %72 = load i32, ptr %10, align 4
  %73 = add nsw i32 %72, 1
  store i32 %73, ptr %10, align 4
  br label %35, !llvm.loop !14

74:                                               ; preds = %35
  %75 = load ptr, ptr %8, align 8
  %76 = icmp ne ptr %75, null
  br i1 %76, label %77, label %112

77:                                               ; preds = %74
  store i32 0, ptr %11, align 4
  store i32 0, ptr %10, align 4
  br label %78

78:                                               ; preds = %104, %77
  %79 = load i32, ptr %10, align 4
  %80 = load ptr, ptr %8, align 8
  %81 = call i32 @Vec_IntSize(ptr noundef %80)
  %82 = icmp slt i32 %79, %81
  br i1 %82, label %83, label %87

83:                                               ; preds = %78
  %84 = load ptr, ptr %8, align 8
  %85 = load i32, ptr %10, align 4
  %86 = call i32 @Vec_IntEntry(ptr noundef %84, i32 noundef %85)
  store i32 %86, ptr %12, align 4
  br label %87

87:                                               ; preds = %83, %78
  %88 = phi i1 [ false, %78 ], [ true, %83 ]
  br i1 %88, label %89, label %107

89:                                               ; preds = %87
  %90 = load i32, ptr %12, align 4
  %91 = icmp ne i32 %90, 0
  br i1 %91, label %92, label %103

92:                                               ; preds = %89
  %93 = load ptr, ptr %9, align 8
  %94 = load i32, ptr %10, align 4
  %95 = sext i32 %94 to i64
  %96 = getelementptr inbounds i8, ptr %93, i64 %95
  %97 = load i8, ptr %96, align 1
  %98 = load ptr, ptr %9, align 8
  %99 = load i32, ptr %11, align 4
  %100 = add nsw i32 %99, 1
  store i32 %100, ptr %11, align 4
  %101 = sext i32 %99 to i64
  %102 = getelementptr inbounds i8, ptr %98, i64 %101
  store i8 %97, ptr %102, align 1
  br label %103

103:                                              ; preds = %92, %89
  br label %104

104:                                              ; preds = %103
  %105 = load i32, ptr %10, align 4
  %106 = add nsw i32 %105, 1
  store i32 %106, ptr %10, align 4
  br label %78, !llvm.loop !15

107:                                              ; preds = %87
  %108 = load ptr, ptr %9, align 8
  %109 = load i32, ptr %11, align 4
  %110 = sext i32 %109 to i64
  %111 = getelementptr inbounds i8, ptr %108, i64 %110
  store i8 0, ptr %111, align 1
  br label %112

112:                                              ; preds = %107, %74
  %113 = load ptr, ptr %5, align 8
  %114 = load ptr, ptr %9, align 8
  %115 = call i32 (ptr, ptr, ...) @fprintf(ptr noundef %113, ptr noundef @.str, ptr noundef %114) #11
  %116 = load ptr, ptr %9, align 8
  %117 = icmp ne ptr %116, null
  br i1 %117, label %118, label %120

118:                                              ; preds = %112
  %119 = load ptr, ptr %9, align 8
  call void @free(ptr noundef %119) #11
  store ptr null, ptr %9, align 8
  br label %121

120:                                              ; preds = %112
  br label %121

121:                                              ; preds = %120, %118
  ret void
}