; Function Attrs: nounwind uwtable
define void @Pdr_SetPrint(ptr noundef captures(none) %0, ptr noundef readonly captures(none) %1, i32 noundef %2, ptr noundef readonly %3) local_unnamed_addr #9 {
  %5 = add nsw i32 %2, 1
  %6 = sext i32 %5 to i64
  %7 = tail call noalias ptr @malloc(i64 noundef %6) #26
  %8 = icmp sgt i32 %2, 0
  br i1 %8, label %.lr.ph.preheader, label %._crit_edge

.lr.ph.preheader:                                 ; preds = %4
  %9 = zext nneg i32 %2 to i64
  tail call void @llvm.memset.p0.i64(ptr align 1 %7, i8 45, i64 %9, i1 false)
  %10 = zext nneg i32 %2 to i64
  br label %._crit_edge

._crit_edge:                                      ; preds = %.lr.ph.preheader, %4
  %.034.lcssa = phi i64 [ 0, %4 ], [ %10, %.lr.ph.preheader ]
  %11 = getelementptr inbounds nuw i8, ptr %7, i64 %.034.lcssa
  store i8 0, ptr %11, align 1
  %12 = getelementptr inbounds nuw i8, ptr %1, i64 16
  %13 = load i32, ptr %12, align 8
  %14 = icmp sgt i32 %13, 0
  br i1 %14, label %.lr.ph48, label %._crit_edge49

.lr.ph48:                                         ; preds = %._crit_edge
  %15 = getelementptr inbounds nuw i8, ptr %1, i64 20
  %wide.trip.count56 = zext nneg i32 %13 to i64
  br label %16

16:                                               ; preds = %.lr.ph48, %26
  %indvars.iv = phi i64 [ 0, %.lr.ph48 ], [ %indvars.iv.next, %26 ]
  %17 = getelementptr inbounds nuw [0 x i32], ptr %15, i64 0, i64 %indvars.iv
  %18 = load i32, ptr %17, align 4
  %19 = icmp eq i32 %18, -1
  br i1 %19, label %26, label %20

20:                                               ; preds = %16
  %21 = and i32 %18, 1
  %.not41 = icmp eq i32 %21, 0
  %22 = select i1 %.not41, i8 49, i8 48
  %23 = ashr i32 %18, 1
  %24 = sext i32 %23 to i64
  %25 = getelementptr inbounds i8, ptr %7, i64 %24
  store i8 %22, ptr %25, align 1
  br label %26

26:                                               ; preds = %16, %20
  %indvars.iv.next = add nuw nsw i64 %indvars.iv, 1
  %exitcond.not = icmp eq i64 %indvars.iv.next, %wide.trip.count56
  br i1 %exitcond.not, label %._crit_edge49, label %16, !llvm.loop !11

._crit_edge49:                                    ; preds = %26, %._crit_edge
  %.not = icmp eq ptr %3, null
  br i1 %.not, label %42, label %.preheader

.preheader:                                       ; preds = %._crit_edge49
  %27 = getelementptr i8, ptr %3, i64 4
  %.val = load i32, ptr %27, align 4
  %28 = icmp sgt i32 %.val, 0
  br i1 %28, label %.lr.ph52, label %.thread

.lr.ph52:                                         ; preds = %.preheader
  %29 = getelementptr i8, ptr %3, i64 8
  %.val42 = load ptr, ptr %29, align 8
  %wide.trip.count60 = zext nneg i32 %.val to i64
  br label %30

30:                                               ; preds = %.lr.ph52, %39
  %indvars.iv57 = phi i64 [ 0, %.lr.ph52 ], [ %indvars.iv.next58, %39 ]
  %.051 = phi i32 [ 0, %.lr.ph52 ], [ %.1, %39 ]
  %31 = getelementptr inbounds nuw i32, ptr %.val42, i64 %indvars.iv57
  %32 = load i32, ptr %31, align 4
  %.not40 = icmp eq i32 %32, 0
  br i1 %.not40, label %39, label %33

33:                                               ; preds = %30
  %34 = getelementptr inbounds nuw i8, ptr %7, i64 %indvars.iv57
  %35 = load i8, ptr %34, align 1
  %36 = add nsw i32 %.051, 1
  %37 = sext i32 %.051 to i64
  %38 = getelementptr inbounds i8, ptr %7, i64 %37
  store i8 %35, ptr %38, align 1
  br label %39

39:                                               ; preds = %30, %33
  %.1 = phi i32 [ %36, %33 ], [ %.051, %30 ]
  %indvars.iv.next58 = add nuw nsw i64 %indvars.iv57, 1
  %exitcond61.not = icmp eq i64 %indvars.iv.next58, %wide.trip.count60
  br i1 %exitcond61.not, label %.thread.loopexit, label %30, !llvm.loop !12

.thread.loopexit:                                 ; preds = %39
  %40 = sext i32 %.1 to i64
  br label %.thread

.thread:                                          ; preds = %.thread.loopexit, %.preheader
  %.0.lcssa = phi i64 [ 0, %.preheader ], [ %40, %.thread.loopexit ]
  %41 = getelementptr inbounds i8, ptr %7, i64 %.0.lcssa
  store i8 0, ptr %41, align 1
  %fputs43 = tail call i32 @fputs(ptr %7, ptr %0)
  br label %43

42:                                               ; preds = %._crit_edge49
  %fputs = tail call i32 @fputs(ptr %7, ptr %0)
  %.not39 = icmp eq ptr %7, null
  br i1 %.not39, label %44, label %43

43:                                               ; preds = %.thread, %42
  tail call void @free(ptr noundef nonnull %7) #27
  br label %44

44:                                               ; preds = %42, %43
  ret void
}